; Function Attrs: nounwind uwtable
define internal ptr @getcodec(ptr noundef %0, ptr noundef %1) #0 {
  %3 = getelementptr i8, ptr %1, i64 8
  %.val = load ptr, ptr %3, align 8, !tbaa !12
  %4 = getelementptr i8, ptr %.val, i64 168
  %.val22 = load i64, ptr %4, align 8, !tbaa !15
  %5 = and i64 %.val22, 268435456
  %.not = icmp eq i64 %5, 0
  br i1 %.not, label %6, label %8

6:                                                ; preds = %2
  %7 = load ptr, ptr @PyExc_TypeError, align 8, !tbaa !25
  tail call void @PyErr_SetString(ptr noundef %7, ptr noundef nonnull @.str.4) #7
  br label %.thread

8:                                                ; preds = %2
  %9 = tail call ptr @PyUnicode_AsUTF8(ptr noundef nonnull %1) #7
  %10 = icmp eq ptr %9, null
  br i1 %10, label %.thread, label %11

11:                                               ; preds = %8
  %12 = tail call ptr @PyModule_GetState(ptr noundef %0) #7
  %13 = getelementptr inbounds nuw i8, ptr %12, i64 4
  %14 = load i32, ptr %13, align 4, !tbaa !26
  %.not2125 = icmp sgt i32 %14, 0
  br i1 %.not2125, label %_getcodec.exit.lr.ph, label %._crit_edge

_getcodec.exit.lr.ph:                             ; preds = %11
  %15 = getelementptr inbounds nuw i8, ptr %12, i64 16
  %16 = load ptr, ptr %15, align 8, !tbaa !11
  %wide.trip.count = zext nneg i32 %14 to i64
  br label %_getcodec.exit

17:                                               ; preds = %_getcodec.exit
  %indvars.iv.next = add nuw nsw i64 %indvars.iv, 1
  %exitcond.not = icmp eq i64 %indvars.iv.next, %wide.trip.count
  br i1 %exitcond.not, label %._crit_edge, label %_getcodec.exit, !llvm.loop !27

_getcodec.exit:                                   ; preds = %_getcodec.exit.lr.ph, %17
  %indvars.iv = phi i64 [ 0, %_getcodec.exit.lr.ph ], [ %indvars.iv.next, %17 ]
  %18 = getelementptr %struct._multibyte_codec, ptr %16, i64 %indvars.iv
  %19 = load ptr, ptr %18, align 8, !tbaa !29
  %20 = tail call i32 @strcmp(ptr noundef nonnull dereferenceable(1) %19, ptr noundef nonnull dereferenceable(1) %9) #8
  %.not20 = icmp eq i32 %20, 0
  br i1 %.not20, label %21, label %17

21:                                               ; preds = %_getcodec.exit
  %22 = tail call ptr @PyImport_ImportModuleAttrString(ptr noundef nonnull @.str.7, ptr noundef nonnull @.str.8) #7
  %23 = icmp eq ptr %22, null
  br i1 %23, label %.thread, label %24

24:                                               ; preds = %21
  %25 = tail call ptr @PyMem_Malloc(i64 noundef 16) #7
  %26 = icmp eq ptr %25, null
  br i1 %26, label %32, label %27

27:                                               ; preds = %24
  store ptr %18, ptr %25, align 8, !tbaa !32
  %28 = load i32, ptr %0, align 8, !tbaa !34
  %29 = icmp slt i32 %28, 0
  br i1 %29, label %38, label %30

30:                                               ; preds = %27
  %31 = add nuw i32 %28, 1
  store i32 %31, ptr %0, align 8, !tbaa !34
  br label %38

32:                                               ; preds = %24
  %33 = tail call ptr @PyErr_NoMemory() #7
  %34 = load i32, ptr %22, align 8, !tbaa !34
  %.not.i.i = icmp sgt i32 %34, -1
  br i1 %.not.i.i, label %35, label %.thread

35:                                               ; preds = %32
  %36 = add nsw i32 %34, -1
  store i32 %36, ptr %22, align 8, !tbaa !34
  %37 = icmp eq i32 %36, 0
  br i1 %37, label %Py_DECREF.exit.sink.split.i, label %.thread

38:                                               ; preds = %30, %27
  %39 = getelementptr inbounds nuw i8, ptr %25, i64 8
  store ptr %0, ptr %39, align 8, !tbaa !35
  %40 = tail call ptr @PyCapsule_New(ptr noundef nonnull %25, ptr noundef nonnull @.str.6, ptr noundef nonnull @destroy_codec_capsule) #7
  %41 = icmp eq ptr %40, null
  br i1 %41, label %42, label %47

42:                                               ; preds = %38
  tail call void @PyMem_Free(ptr noundef nonnull %25) #7
  %43 = load i32, ptr %22, align 8, !tbaa !34
  %.not.i18.i = icmp sgt i32 %43, -1
  br i1 %.not.i18.i, label %44, label %.thread

44:                                               ; preds = %42
  %45 = add nsw i32 %43, -1
  store i32 %45, ptr %22, align 8, !tbaa !34
  %46 = icmp eq i32 %45, 0
  br i1 %46, label %Py_DECREF.exit.sink.split.i, label %.thread

47:                                               ; preds = %38
  %48 = tail call ptr @PyObject_CallOneArg(ptr noundef nonnull %22, ptr noundef nonnull %40) #7
  %49 = load i32, ptr %40, align 8, !tbaa !34
  %.not.i20.i = icmp sgt i32 %49, -1
  br i1 %.not.i20.i, label %50, label %Py_DECREF.exit21.i

50:                                               ; preds = %47
  %51 = add nsw i32 %49, -1
  store i32 %51, ptr %40, align 8, !tbaa !34
  %52 = icmp eq i32 %51, 0
  br i1 %52, label %53, label %Py_DECREF.exit21.i

53:                                               ; preds = %50
  tail call void @_Py_Dealloc(ptr noundef nonnull %40) #7
  br label %Py_DECREF.exit21.i

Py_DECREF.exit21.i:                               ; preds = %53, %50, %47
  %54 = load i32, ptr %22, align 8, !tbaa !34
  %.not.i22.i = icmp sgt i32 %54, -1
  br i1 %.not.i22.i, label %55, label %.thread

55:                                               ; preds = %Py_DECREF.exit21.i
  %56 = add nsw i32 %54, -1
  store i32 %56, ptr %22, align 8, !tbaa !34
  %57 = icmp eq i32 %56, 0
  br i1 %57, label %Py_DECREF.exit.sink.split.i, label %.thread

Py_DECREF.exit.sink.split.i:                      ; preds = %55, %44, %35
  %.0.ph.i = phi ptr [ null, %35 ], [ null, %44 ], [ %48, %55 ]
  tail call void @_Py_Dealloc(ptr noundef nonnull %22) #7
  br label %.thread

._crit_edge:                                      ; preds = %17, %11
  %58 = load ptr, ptr @PyExc_LookupError, align 8, !tbaa !25
  tail call void @PyErr_SetString(ptr noundef %58, ptr noundef nonnull @.str.5) #7
  br label %.thread

.thread:                                          ; preds = %Py_DECREF.exit.sink.split.i, %55, %Py_DECREF.exit21.i, %44, %42, %35, %32, %21, %8, %._crit_edge, %6
  %.0 = phi ptr [ null, %6 ], [ null, %8 ], [ null, %._crit_edge ], [ %.0.ph.i, %Py_DECREF.exit.sink.split.i ], [ %48, %55 ], [ %48, %Py_DECREF.exit21.i ], [ null, %44 ], [ null, %42 ], [ null, %35 ], [ null, %32 ], [ null, %21 ]
  ret ptr %.0
}